; Function Attrs: nounwind uwtable
define dso_local i64 @varcharin(ptr noundef readonly captures(none) %0) local_unnamed_addr #0 {
  %2 = getelementptr inbounds nuw i8, ptr %0, i64 32
  %3 = load i64, ptr %2, align 8
  %4 = inttoptr i64 %3 to ptr
  %5 = getelementptr inbounds nuw i8, ptr %0, i64 64
  %6 = load i64, ptr %5, align 8
  %7 = trunc i64 %6 to i32
  %8 = tail call i64 @strlen(ptr noundef nonnull dereferenceable(1) %4) #12
  %9 = getelementptr inbounds nuw i8, ptr %0, i64 8
  %10 = load ptr, ptr %9, align 8
  %11 = tail call fastcc ptr @varchar_input(ptr noundef nonnull %4, i64 noundef %8, i32 noundef %7, ptr noundef %10)
  %12 = ptrtoint ptr %11 to i64
  ret i64 %12
}